target datalayout = "e-m:e-p270:32:32-p271:32:32-p272:64:64-i64:64-i128:128-f80:128-n8:16:32:64-S128"
target triple = "x86_64-pc-linux-gnu"

%struct.TIDBitmap = type { i32, ptr, i32, ptr, i32, i32, i32, i32, i32, i32, %struct.PagetableEntry, ptr, ptr, i64, i64, i64, i64, ptr }
%struct.PagetableEntry = type { i32, i8, i8, i8, [5 x i64] }
%struct.pagetable_hash = type { i64, i32, i32, i32, ptr, ptr, ptr }
%struct.pagetable_iterator = type { i32, i32, i8 }

; Function Attrs: inlinehint nounwind uwtable
define internal ptr @pagetable_iterate(ptr noundef %0, ptr noundef %1) #2 {
  %3 = alloca ptr, align 8
  %4 = alloca ptr, align 8
  %5 = alloca ptr, align 8
  %6 = alloca ptr, align 8
  %7 = alloca i32, align 4
  store ptr %0, ptr %4, align 8
  store ptr %1, ptr %5, align 8
  br label %8

8:                                                ; preds = %62, %2
  %9 = load ptr, ptr %5, align 8
  %10 = getelementptr inbounds nuw %struct.pagetable_iterator, ptr %9, i32 0, i32 2
  %11 = load i8, ptr %10, align 4, !range !4, !noundef !5
  %12 = trunc i8 %11 to i1
  %13 = xor i1 %12, true
  br i1 %13, label %14, label %63

14:                                               ; preds = %8
  call void @llvm.lifetime.start.p0(i64 8, ptr %6) #9
  %15 = load ptr, ptr %4, align 8
  %16 = getelementptr inbounds nuw %struct.pagetable_hash, ptr %15, i32 0, i32 4
  %17 = load ptr, ptr %16, align 8
  %18 = load ptr, ptr %5, align 8
  %19 = getelementptr inbounds nuw %struct.pagetable_iterator, ptr %18, i32 0, i32 0
  %20 = load i32, ptr %19, align 4
  %21 = zext i32 %20 to i64
  %22 = getelementptr inbounds nuw %struct.PagetableEntry, ptr %17, i64 %21
  store ptr %22, ptr %6, align 8
  %23 = load ptr, ptr %5, align 8
  %24 = getelementptr inbounds nuw %struct.pagetable_iterator, ptr %23, i32 0, i32 0
  %25 = load i32, ptr %24, align 4
  %26 = sub i32 %25, 1
  %27 = load ptr, ptr %4, align 8
  %28 = getelementptr inbounds nuw %struct.pagetable_hash, ptr %27, i32 0, i32 2
  %29 = load i32, ptr %28, align 4
  %30 = and i32 %26, %29
  %31 = load ptr, ptr %5, align 8
  %32 = getelementptr inbounds nuw %struct.pagetable_iterator, ptr %31, i32 0, i32 0
  store i32 %30, ptr %32, align 4
  %33 = load ptr, ptr %5, align 8
  %34 = getelementptr inbounds nuw %struct.pagetable_iterator, ptr %33, i32 0, i32 0
  %35 = load i32, ptr %34, align 4
  %36 = load ptr, ptr %4, align 8
  %37 = getelementptr inbounds nuw %struct.pagetable_hash, ptr %36, i32 0, i32 2
  %38 = load i32, ptr %37, align 4
  %39 = and i32 %35, %38
  %40 = load ptr, ptr %5, align 8
  %41 = getelementptr inbounds nuw %struct.pagetable_iterator, ptr %40, i32 0, i32 1
  %42 = load i32, ptr %41, align 4
  %43 = load ptr, ptr %4, align 8
  %44 = getelementptr inbounds nuw %struct.pagetable_hash, ptr %43, i32 0, i32 2
  %45 = load i32, ptr %44, align 4
  %46 = and i32 %42, %45
  %47 = icmp eq i32 %39, %46
  br i1 %47, label %48, label %51

48:                                               ; preds = %14
  %49 = load ptr, ptr %5, align 8
  %50 = getelementptr inbounds nuw %struct.pagetable_iterator, ptr %49, i32 0, i32 2
  store i8 1, ptr %50, align 4
  br label %51

51:                                               ; preds = %48, %14
  %52 = load ptr, ptr %6, align 8
  %53 = getelementptr inbounds nuw %struct.PagetableEntry, ptr %52, i32 0, i32 1
  %54 = load i8, ptr %53, align 4
  %55 = sext i8 %54 to i32
  %56 = icmp eq i32 %55, 1
  br i1 %56, label %57, label %59

57:                                               ; preds = %51
  %58 = load ptr, ptr %6, align 8
  store ptr %58, ptr %3, align 8
  store i32 1, ptr %7, align 4
  br label %60

59:                                               ; preds = %51
  store i32 0, ptr %7, align 4
  br label %60

60:                                               ; preds = %59, %57
  call void @llvm.lifetime.end.p0(i64 8, ptr %6) #9
  %61 = load i32, ptr %7, align 4
  switch i32 %61, label %66 [
    i32 0, label %62
    i32 1, label %64
  ]

62:                                               ; preds = %60
  br label %8, !llvm.loop !17

63:                                               ; preds = %8
  store ptr null, ptr %3, align 8
  br label %64

64:                                               ; preds = %63, %60
  %65 = load ptr, ptr %3, align 8
  ret ptr %65

66:                                               ; preds = %60
  unreachable
}

; Function Attrs: inlinehint nounwind uwtable
define internal void @pagetable_start_iterate_at(ptr noundef %0, ptr noundef %1, i32 noundef %2) #2 {
  %4 = alloca ptr, align 8
  %5 = alloca ptr, align 8
  %6 = alloca i32, align 4
  store ptr %0, ptr %4, align 8
  store ptr %1, ptr %5, align 8
  store i32 %2, ptr %6, align 4
  %7 = load i32, ptr %6, align 4
  %8 = load ptr, ptr %4, align 8
  %9 = getelementptr inbounds nuw %struct.pagetable_hash, ptr %8, i32 0, i32 2
  %10 = load i32, ptr %9, align 4
  %11 = and i32 %7, %10
  %12 = load ptr, ptr %5, align 8
  %13 = getelementptr inbounds nuw %struct.pagetable_iterator, ptr %12, i32 0, i32 0
  store i32 %11, ptr %13, align 4
  %14 = load ptr, ptr %5, align 8
  %15 = getelementptr inbounds nuw %struct.pagetable_iterator, ptr %14, i32 0, i32 0
  %16 = load i32, ptr %15, align 4
  %17 = load ptr, ptr %5, align 8
  %18 = getelementptr inbounds nuw %struct.pagetable_iterator, ptr %17, i32 0, i32 1
  store i32 %16, ptr %18, align 4
  %19 = load ptr, ptr %5, align 8
  %20 = getelementptr inbounds nuw %struct.pagetable_iterator, ptr %19, i32 0, i32 2
  store i8 0, ptr %20, align 4
  ret void
}

; Function Attrs: nounwind uwtable
define internal void @tbm_lossify(ptr noundef %0) #0 {
  %2 = alloca ptr, align 8
  %3 = alloca %struct.pagetable_iterator, align 4
  %4 = alloca ptr, align 8
  store ptr %0, ptr %2, align 8
  call void @llvm.lifetime.start.p0(i64 12, ptr %3) #9
  call void @llvm.lifetime.start.p0(i64 8, ptr %4) #9
  %5 = load ptr, ptr %2, align 8
  %6 = getelementptr inbounds nuw %struct.TIDBitmap, ptr %5, i32 0, i32 3
  %7 = load ptr, ptr %6, align 8
  %8 = load ptr, ptr %2, align 8
  %9 = getelementptr inbounds nuw %struct.TIDBitmap, ptr %8, i32 0, i32 9
  %10 = load i32, ptr %9, align 4
  call void @pagetable_start_iterate_at(ptr noundef %7, ptr noundef %3, i32 noundef %10)
  br label %11

11:                                               ; preds = %48, %29, %22, %1
  %12 = load ptr, ptr %2, align 8
  %13 = getelementptr inbounds nuw %struct.TIDBitmap, ptr %12, i32 0, i32 3
  %14 = load ptr, ptr %13, align 8
  %15 = call ptr @pagetable_iterate(ptr noundef %14, ptr noundef %3)
  store ptr %15, ptr %4, align 8
  %16 = icmp ne ptr %15, null
  br i1 %16, label %17, label %49

17:                                               ; preds = %11
  %18 = load ptr, ptr %4, align 8
  %19 = getelementptr inbounds nuw %struct.PagetableEntry, ptr %18, i32 0, i32 2
  %20 = load i8, ptr %19, align 1, !range !4, !noundef !5
  %21 = trunc i8 %20 to i1
  br i1 %21, label %22, label %23

22:                                               ; preds = %17
  br label %11, !llvm.loop !9

23:                                               ; preds = %17
  %24 = load ptr, ptr %4, align 8
  %25 = getelementptr inbounds nuw %struct.PagetableEntry, ptr %24, i32 0, i32 0
  %26 = load i32, ptr %25, align 8
  %27 = urem i32 %26, 256
  %28 = icmp eq i32 %27, 0
  br i1 %28, label %29, label %30

29:                                               ; preds = %23
  br label %11, !llvm.loop !9

30:                                               ; preds = %23
  %31 = load ptr, ptr %2, align 8
  %32 = load ptr, ptr %4, align 8
  %33 = getelementptr inbounds nuw %struct.PagetableEntry, ptr %32, i32 0, i32 0
  %34 = load i32, ptr %33, align 8
  call void @tbm_mark_page_lossy(ptr noundef %31, i32 noundef %34)
  %35 = load ptr, ptr %2, align 8
  %36 = getelementptr inbounds nuw %struct.TIDBitmap, ptr %35, i32 0, i32 4
  %37 = load i32, ptr %36, align 8
  %38 = load ptr, ptr %2, align 8
  %39 = getelementptr inbounds nuw %struct.TIDBitmap, ptr %38, i32 0, i32 5
  %40 = load i32, ptr %39, align 4
  %41 = sdiv i32 %40, 2
  %42 = icmp sle i32 %37, %41
  br i1 %42, label %43, label %48

43:                                               ; preds = %30
  %44 = getelementptr inbounds nuw %struct.pagetable_iterator, ptr %3, i32 0, i32 0
  %45 = load i32, ptr %44, align 4
  %46 = load ptr, ptr %2, align 8
  %47 = getelementptr inbounds nuw %struct.TIDBitmap, ptr %46, i32 0, i32 9
  store i32 %45, ptr %47, align 4
  br label %49

48:                                               ; preds = %30
  br label %11, !llvm.loop !9

49:                                               ; preds = %43, %11
  %50 = load ptr, ptr %2, align 8
  %51 = getelementptr inbounds nuw %struct.TIDBitmap, ptr %50, i32 0, i32 4
  %52 = load i32, ptr %51, align 8
  %53 = load ptr, ptr %2, align 8
  %54 = getelementptr inbounds nuw %struct.TIDBitmap, ptr %53, i32 0, i32 5
  %55 = load i32, ptr %54, align 4
  %56 = sdiv i32 %55, 2
  %57 = icmp sgt i32 %52, %56
  br i1 %57, label %58, label %73

58:                                               ; preds = %49
  %59 = load ptr, ptr %2, align 8
  %60 = getelementptr inbounds nuw %struct.TIDBitmap, ptr %59, i32 0, i32 4
  %61 = load i32, ptr %60, align 8
  %62 = icmp slt i32 %61, 1073741823
  br i1 %62, label %63, label %67

63:                                               ; preds = %58
  %64 = load ptr, ptr %2, align 8
  %65 = getelementptr inbounds nuw %struct.TIDBitmap, ptr %64, i32 0, i32 4
  %66 = load i32, ptr %65, align 8
  br label %68

67:                                               ; preds = %58
  br label %68

68:                                               ; preds = %67, %63
  %69 = phi i32 [ %66, %63 ], [ 1073741823, %67 ]
  %70 = mul i32 %69, 2
  %71 = load ptr, ptr %2, align 8
  %72 = getelementptr inbounds nuw %struct.TIDBitmap, ptr %71, i32 0, i32 5
  store i32 %70, ptr %72, align 4
  br label %73

73:                                               ; preds = %68, %49
  call void @llvm.lifetime.end.p0(i64 8, ptr %4) #9
  call void @llvm.lifetime.end.p0(i64 12, ptr %3) #9
  ret void
}

; Function Attrs: nounwind uwtable
define dso_local void @tbm_add_page(ptr noundef %0, i32 noundef %1) #0 {
  %3 = alloca ptr, align 8
  %4 = alloca i32, align 4
  store ptr %0, ptr %3, align 8
  store i32 %1, ptr %4, align 4
  %5 = load ptr, ptr %3, align 8
  %6 = load i32, ptr %4, align 4
  call void @tbm_mark_page_lossy(ptr noundef %5, i32 noundef %6)
  %7 = load ptr, ptr %3, align 8
  %8 = getelementptr inbounds nuw %struct.TIDBitmap, ptr %7, i32 0, i32 4
  %9 = load i32, ptr %8, align 8
  %10 = load ptr, ptr %3, align 8
  %11 = getelementptr inbounds nuw %struct.TIDBitmap, ptr %10, i32 0, i32 5
  %12 = load i32, ptr %11, align 4
  %13 = icmp sgt i32 %9, %12
  br i1 %13, label %14, label %16

14:                                               ; preds = %2
  %15 = load ptr, ptr %3, align 8
  call void @tbm_lossify(ptr noundef %15)
  br label %16

16:                                               ; preds = %14, %2
  ret void
}