; Function Attrs: nounwind uwtable
define dso_local void @tbm_add_page(ptr noundef %0, i32 noundef %1) local_unnamed_addr #0 {
  tail call fastcc void @tbm_mark_page_lossy(ptr noundef %0, i32 noundef %1)
  %3 = getelementptr inbounds nuw i8, ptr %0, i64 32
  %4 = load i32, ptr %3, align 8
  %5 = getelementptr inbounds nuw i8, ptr %0, i64 36
  %6 = load i32, ptr %5, align 4
  %7 = icmp sgt i32 %4, %6
  br i1 %7, label %8, label %tbm_lossify.exit

8:                                                ; preds = %2
  %9 = getelementptr inbounds nuw i8, ptr %0, i64 24
  %10 = load ptr, ptr %9, align 8
  %11 = getelementptr inbounds nuw i8, ptr %0, i64 52
  %12 = load i32, ptr %11, align 4
  %13 = getelementptr i8, ptr %10, i64 12
  %.val.i = load i32, ptr %13, align 4
  %14 = and i32 %.val.i, %12
  br label %.backedge.i.outer

.backedge.i.outer:                                ; preds = %..backedge_crit_edge.i, %8
  %.pre29.i.ph = phi i32 [ %40, %..backedge_crit_edge.i ], [ %6, %8 ]
  %.pre28.i.ph = phi i32 [ %39, %..backedge_crit_edge.i ], [ %4, %8 ]
  %.pre26.i.ph = phi ptr [ %.pre.pre.i, %..backedge_crit_edge.i ], [ %10, %8 ]
  %.sroa.8.0.i.ph = phi i1 [ %spec.select22.i, %..backedge_crit_edge.i ], [ false, %8 ]
  %.sroa.0.0.i.ph = phi i32 [ %25, %..backedge_crit_edge.i ], [ %14, %8 ]
  %15 = getelementptr inbounds nuw i8, ptr %.pre26.i.ph, i64 24
  %16 = getelementptr inbounds nuw i8, ptr %.pre26.i.ph, i64 12
  br label %.backedge.i

.backedge.i:                                      ; preds = %.backedge.i.backedge, %.backedge.i.outer
  %.sroa.8.0.i = phi i1 [ %.sroa.8.0.i.ph, %.backedge.i.outer ], [ %spec.select22.i, %.backedge.i.backedge ]
  %.sroa.0.0.i = phi i32 [ %.sroa.0.0.i.ph, %.backedge.i.outer ], [ %25, %.backedge.i.backedge ]
  br label %17

17:                                               ; preds = %19, %.backedge.i
  %.sroa.8.1.i = phi i1 [ %.sroa.8.0.i, %.backedge.i ], [ %spec.select22.i, %19 ]
  %.sroa.0.1.i = phi i32 [ %.sroa.0.0.i, %.backedge.i ], [ %25, %19 ]
  %18 = phi i1 [ %.sroa.8.0.i, %.backedge.i ], [ %28, %19 ]
  br i1 %18, label %pagetable_iterate.exit.thread.loopexit.i, label %19

19:                                               ; preds = %17
  %20 = load ptr, ptr %15, align 8
  %21 = zext i32 %.sroa.0.1.i to i64
  %22 = getelementptr inbounds nuw %struct.PagetableEntry, ptr %20, i64 %21
  %23 = add i32 %.sroa.0.1.i, -1
  %24 = load i32, ptr %16, align 4
  %25 = and i32 %24, %23
  %26 = xor i32 %23, %14
  %27 = and i32 %24, %26
  %28 = icmp eq i32 %27, 0
  %spec.select22.i = select i1 %28, i1 true, i1 %.sroa.8.1.i
  %29 = getelementptr inbounds nuw i8, ptr %22, i64 4
  %30 = load i8, ptr %29, align 4
  %.not.i.i = icmp eq i8 %30, 1
  br i1 %.not.i.i, label %pagetable_iterate.exit.i, label %17

pagetable_iterate.exit.i:                         ; preds = %19
  %31 = getelementptr inbounds nuw i8, ptr %22, i64 5
  %32 = load i8, ptr %31, align 1, !range !4, !noundef !5
  %33 = trunc nuw i8 %32 to i1
  br i1 %33, label %.backedge.i.backedge, label %34

34:                                               ; preds = %pagetable_iterate.exit.i
  %35 = load i32, ptr %22, align 8
  %36 = and i32 %35, 255
  %37 = icmp eq i32 %36, 0
  br i1 %37, label %.backedge.i.backedge, label %38

.backedge.i.backedge:                             ; preds = %34, %pagetable_iterate.exit.i
  br label %.backedge.i, !llvm.loop !6

38:                                               ; preds = %34
  tail call fastcc void @tbm_mark_page_lossy(ptr noundef %0, i32 noundef %35)
  %39 = load i32, ptr %3, align 8
  %40 = load i32, ptr %5, align 4
  %41 = sdiv i32 %40, 2
  %.not16.i = icmp sgt i32 %39, %41
  br i1 %.not16.i, label %..backedge_crit_edge.i, label %42

..backedge_crit_edge.i:                           ; preds = %38
  %.pre.pre.i = load ptr, ptr %9, align 8
  br label %.backedge.i.outer, !llvm.loop !6

42:                                               ; preds = %38
  store i32 %25, ptr %11, align 4
  br label %pagetable_iterate.exit.thread.i

pagetable_iterate.exit.thread.loopexit.i:         ; preds = %17
  %.pre30.i = sdiv i32 %.pre29.i.ph, 2
  br label %pagetable_iterate.exit.thread.i

pagetable_iterate.exit.thread.i:                  ; preds = %pagetable_iterate.exit.thread.loopexit.i, %42
  %.pre-phi.i = phi i32 [ %.pre30.i, %pagetable_iterate.exit.thread.loopexit.i ], [ %41, %42 ]
  %43 = phi i32 [ %.pre28.i.ph, %pagetable_iterate.exit.thread.loopexit.i ], [ %39, %42 ]
  %44 = icmp sgt i32 %43, %.pre-phi.i
  br i1 %44, label %45, label %tbm_lossify.exit

45:                                               ; preds = %pagetable_iterate.exit.thread.i
  %46 = tail call i32 @llvm.smin.i32(i32 %43, i32 1073741823)
  %spec.select.i = shl nsw i32 %46, 1
  store i32 %spec.select.i, ptr %5, align 4
  br label %tbm_lossify.exit

tbm_lossify.exit:                                 ; preds = %45, %pagetable_iterate.exit.thread.i, %2
  ret void
}